target datalayout = "e-m:e-p270:32:32-p271:32:32-p272:64:64-i64:64-i128:128-f80:128-n8:16:32:64-S128"
target triple = "x86_64-pc-linux-gnu"

%struct.Int128_ = type { i64, i64 }

; Function Attrs: nounwind uwtable
define dso_local { i64, i64 } @i128_add64(i64 %0, i64 %1, i64 noundef %2) #0 {
  %4 = alloca %struct.Int128_, align 8
  %5 = alloca %struct.Int128_, align 8
  %6 = alloca i64, align 8
  %7 = alloca i64, align 8
  %8 = getelementptr inbounds { i64, i64 }, ptr %5, i32 0, i32 0
  store i64 %0, ptr %8, align 8
  %9 = getelementptr inbounds { i64, i64 }, ptr %5, i32 0, i32 1
  store i64 %1, ptr %9, align 8
  store i64 %2, ptr %6, align 8
  %10 = getelementptr inbounds %struct.Int128_, ptr %5, i32 0, i32 1
  %11 = load i64, ptr %10, align 8
  %12 = load i64, ptr %6, align 8
  %13 = add i64 %11, %12
  store i64 %13, ptr %7, align 8
  %14 = getelementptr inbounds %struct.Int128_, ptr %4, i32 0, i32 0
  %15 = load i64, ptr %7, align 8
  %16 = getelementptr inbounds %struct.Int128_, ptr %5, i32 0, i32 1
  %17 = load i64, ptr %16, align 8
  %18 = icmp ult i64 %15, %17
  br i1 %18, label %19, label %23

19:                                               ; preds = %3
  %20 = getelementptr inbounds %struct.Int128_, ptr %5, i32 0, i32 0
  %21 = load i64, ptr %20, align 8
  %22 = add i64 %21, 1
  br label %26

23:                                               ; preds = %3
  %24 = getelementptr inbounds %struct.Int128_, ptr %5, i32 0, i32 0
  %25 = load i64, ptr %24, align 8
  br label %26

26:                                               ; preds = %23, %19
  %27 = phi i64 [ %22, %19 ], [ %25, %23 ]
  store i64 %27, ptr %14, align 8
  %28 = getelementptr inbounds %struct.Int128_, ptr %4, i32 0, i32 1
  %29 = load i64, ptr %7, align 8
  store i64 %29, ptr %28, align 8
  %30 = load { i64, i64 }, ptr %4, align 8
  ret { i64, i64 } %30
}

; Function Attrs: nounwind uwtable
define internal i32 @char_hex_to_nibble(i8 noundef signext %0) #0 {
  %2 = alloca i8, align 1
  store i8 %0, ptr %2, align 1
  %3 = load i8, ptr %2, align 1
  %4 = sext i8 %3 to i32
  %5 = zext i32 %4 to i64
  %6 = getelementptr inbounds [256 x i8], ptr @hex_conv, i64 0, i64 %5
  %7 = load i8, ptr %6, align 1
  %8 = sext i8 %7 to i32
  %9 = sub nsw i32 %8, 1
  ret i32 %9
}

; Function Attrs: nounwind uwtable
define dso_local { i64, i64 } @i128_shl64(i64 %0, i64 %1, i64 noundef %2) #0 {
  %4 = alloca %struct.Int128_, align 8
  %5 = alloca %struct.Int128_, align 8
  %6 = alloca i64, align 8
  %7 = getelementptr inbounds { i64, i64 }, ptr %5, i32 0, i32 0
  store i64 %0, ptr %7, align 8
  %8 = getelementptr inbounds { i64, i64 }, ptr %5, i32 0, i32 1
  store i64 %1, ptr %8, align 8
  store i64 %2, ptr %6, align 8
  %9 = load i64, ptr %6, align 8
  %10 = icmp eq i64 %9, 0
  br i1 %10, label %11, label %12

11:                                               ; preds = %3
  call void @llvm.memcpy.p0.p0.i64(ptr align 8 %4, ptr align 8 %5, i64 16, i1 false)
  br label %54

12:                                               ; preds = %3
  %13 = load i64, ptr %6, align 8
  %14 = icmp ugt i64 %13, 127
  br i1 %14, label %15, label %18

15:                                               ; preds = %12
  %16 = getelementptr inbounds %struct.Int128_, ptr %4, i32 0, i32 0
  store i64 0, ptr %16, align 8
  %17 = getelementptr inbounds %struct.Int128_, ptr %4, i32 0, i32 1
  store i64 0, ptr %17, align 8
  br label %54

18:                                               ; preds = %12
  %19 = load i64, ptr %6, align 8
  %20 = icmp eq i64 %19, 64
  br i1 %20, label %21, label %26

21:                                               ; preds = %18
  %22 = getelementptr inbounds %struct.Int128_, ptr %4, i32 0, i32 0
  %23 = getelementptr inbounds %struct.Int128_, ptr %5, i32 0, i32 1
  %24 = load i64, ptr %23, align 8
  store i64 %24, ptr %22, align 8
  %25 = getelementptr inbounds %struct.Int128_, ptr %4, i32 0, i32 1
  store i64 0, ptr %25, align 8
  br label %54

26:                                               ; preds = %18
  %27 = load i64, ptr %6, align 8
  %28 = icmp ugt i64 %27, 64
  br i1 %28, label %29, label %37

29:                                               ; preds = %26
  %30 = getelementptr inbounds %struct.Int128_, ptr %4, i32 0, i32 0
  %31 = getelementptr inbounds %struct.Int128_, ptr %5, i32 0, i32 1
  %32 = load i64, ptr %31, align 8
  %33 = load i64, ptr %6, align 8
  %34 = sub i64 %33, 64
  %35 = shl i64 %32, %34
  store i64 %35, ptr %30, align 8
  %36 = getelementptr inbounds %struct.Int128_, ptr %4, i32 0, i32 1
  store i64 0, ptr %36, align 8
  br label %54

37:                                               ; preds = %26
  %38 = getelementptr inbounds %struct.Int128_, ptr %4, i32 0, i32 0
  %39 = getelementptr inbounds %struct.Int128_, ptr %5, i32 0, i32 0
  %40 = load i64, ptr %39, align 8
  %41 = load i64, ptr %6, align 8
  %42 = shl i64 %40, %41
  %43 = getelementptr inbounds %struct.Int128_, ptr %5, i32 0, i32 1
  %44 = load i64, ptr %43, align 8
  %45 = load i64, ptr %6, align 8
  %46 = sub i64 64, %45
  %47 = lshr i64 %44, %46
  %48 = or i64 %42, %47
  store i64 %48, ptr %38, align 8
  %49 = getelementptr inbounds %struct.Int128_, ptr %4, i32 0, i32 1
  %50 = getelementptr inbounds %struct.Int128_, ptr %5, i32 0, i32 1
  %51 = load i64, ptr %50, align 8
  %52 = load i64, ptr %6, align 8
  %53 = shl i64 %51, %52
  store i64 %53, ptr %49, align 8
  br label %54

54:                                               ; preds = %37, %29, %21, %15, %11
  %55 = load { i64, i64 }, ptr %4, align 8
  ret { i64, i64 } %55
}

; Function Attrs: nounwind uwtable
define dso_local { i64, i64 } @i128_from_hexstrl(ptr noundef %0, ptr noundef %1) #0 {
  %3 = alloca %struct.Int128_, align 8
  %4 = alloca ptr, align 8
  %5 = alloca ptr, align 8
  %6 = alloca i8, align 1
  %7 = alloca %struct.Int128_, align 8
  %8 = alloca %struct.Int128_, align 8
  store ptr %0, ptr %4, align 8
  store ptr %1, ptr %5, align 8
  call void @llvm.memset.p0.i64(ptr align 8 %3, i8 0, i64 16, i1 false)
  br label %9

9:                                                ; preds = %13, %2
  %10 = load ptr, ptr %4, align 8
  %11 = load ptr, ptr %5, align 8
  %12 = icmp ne ptr %10, %11
  br i1 %12, label %13, label %38

13:                                               ; preds = %9
  %14 = load ptr, ptr %4, align 8
  %15 = getelementptr inbounds i8, ptr %14, i32 1
  store ptr %15, ptr %4, align 8
  %16 = load i8, ptr %14, align 1
  store i8 %16, ptr %6, align 1
  %17 = getelementptr inbounds { i64, i64 }, ptr %3, i32 0, i32 0
  %18 = load i64, ptr %17, align 8
  %19 = getelementptr inbounds { i64, i64 }, ptr %3, i32 0, i32 1
  %20 = load i64, ptr %19, align 8
  %21 = call { i64, i64 } @i128_shl64(i64 %18, i64 %20, i64 noundef 4)
  %22 = getelementptr inbounds { i64, i64 }, ptr %8, i32 0, i32 0
  %23 = extractvalue { i64, i64 } %21, 0
  store i64 %23, ptr %22, align 8
  %24 = getelementptr inbounds { i64, i64 }, ptr %8, i32 0, i32 1
  %25 = extractvalue { i64, i64 } %21, 1
  store i64 %25, ptr %24, align 8
  %26 = load i8, ptr %6, align 1
  %27 = call i32 @char_hex_to_nibble(i8 noundef signext %26)
  %28 = sext i32 %27 to i64
  %29 = getelementptr inbounds { i64, i64 }, ptr %8, i32 0, i32 0
  %30 = load i64, ptr %29, align 8
  %31 = getelementptr inbounds { i64, i64 }, ptr %8, i32 0, i32 1
  %32 = load i64, ptr %31, align 8
  %33 = call { i64, i64 } @i128_add64(i64 %30, i64 %32, i64 noundef %28)
  %34 = getelementptr inbounds { i64, i64 }, ptr %7, i32 0, i32 0
  %35 = extractvalue { i64, i64 } %33, 0
  store i64 %35, ptr %34, align 8
  %36 = getelementptr inbounds { i64, i64 }, ptr %7, i32 0, i32 1
  %37 = extractvalue { i64, i64 } %33, 1
  store i64 %37, ptr %36, align 8
  call void @llvm.memcpy.p0.p0.i64(ptr align 8 %3, ptr align 8 %7, i64 16, i1 false)
  br label %9, !llvm.loop !12

38:                                               ; preds = %9
  %39 = load { i64, i64 }, ptr %3, align 8
  ret { i64, i64 } %39
}