; Function Attrs: nofree norecurse nosync nounwind memory(argmem: read) uwtable
define dso_local { i64, i64 } @i128_from_hexstrl(ptr noundef readonly %0, ptr noundef readnone %1) local_unnamed_addr #6 {
  %.not10 = icmp eq ptr %0, %1
  br i1 %.not10, label %._crit_edge, label %.lr.ph

.lr.ph:                                           ; preds = %2, %.lr.ph
  %.sroa.05.013 = phi i64 [ %16, %.lr.ph ], [ 0, %2 ]
  %.sroa.4.012 = phi i64 [ %13, %.lr.ph ], [ 0, %2 ]
  %.011 = phi ptr [ %3, %.lr.ph ], [ %0, %2 ]
  %3 = getelementptr inbounds nuw i8, ptr %.011, i64 1
  %4 = load i8, ptr %.011, align 1
  %5 = tail call i64 @llvm.fshl.i64(i64 %.sroa.05.013, i64 %.sroa.4.012, i64 4)
  %6 = shl i64 %.sroa.4.012, 4
  %7 = sext i8 %4 to i64
  %8 = and i64 %7, 4294967295
  %9 = getelementptr inbounds nuw [256 x i8], ptr @hex_conv, i64 0, i64 %8
  %10 = load i8, ptr %9, align 1
  %11 = sext i8 %10 to i64
  %12 = add i64 %6, -1
  %13 = add i64 %12, %11
  %14 = icmp ult i64 %13, %6
  %15 = zext i1 %14 to i64
  %16 = add i64 %5, %15
  %.not = icmp eq ptr %3, %1
  br i1 %.not, label %._crit_edge, label %.lr.ph, !llvm.loop !13

._crit_edge:                                      ; preds = %.lr.ph, %2
  %.sroa.4.0.lcssa = phi i64 [ 0, %2 ], [ %13, %.lr.ph ]
  %.sroa.05.0.lcssa = phi i64 [ 0, %2 ], [ %16, %.lr.ph ]
  %.fca.0.insert = insertvalue { i64, i64 } poison, i64 %.sroa.05.0.lcssa, 0
  %.fca.1.insert = insertvalue { i64, i64 } %.fca.0.insert, i64 %.sroa.4.0.lcssa, 1
  ret { i64, i64 } %.fca.1.insert
}